; Function Attrs: nounwind uwtable
define internal ptr @odict_reversed(ptr noundef %0, ptr readnone captures(none) %1) #0 {
  %3 = tail call ptr @_PyObject_GC_New(ptr noundef nonnull @PyODictIter_Type) #8
  %4 = icmp eq ptr %3, null
  br i1 %4, label %odictiter_new.exit, label %5

5:                                                ; preds = %2
  %6 = getelementptr inbounds nuw i8, ptr %3, i64 56
  store ptr null, ptr %6, align 8, !tbaa !56
  %7 = getelementptr inbounds nuw i8, ptr %3, i64 16
  store i32 3, ptr %7, align 8, !tbaa !59
  %.in.i = getelementptr inbounds nuw i8, ptr %0, i64 56
  %8 = load ptr, ptr %.in.i, align 8, !tbaa !50
  %.not25.i = icmp eq ptr %8, null
  br i1 %.not25.i, label %_Py_NewRef.exit.i, label %9

9:                                                ; preds = %5
  %10 = load ptr, ptr %8, align 8, !tbaa !44
  %11 = load i32, ptr %10, align 8, !tbaa !38
  %12 = icmp slt i32 %11, 0
  br i1 %12, label %_Py_NewRef.exit.i, label %13

13:                                               ; preds = %9
  %14 = add nuw i32 %11, 1
  store i32 %14, ptr %10, align 8, !tbaa !38
  br label %_Py_NewRef.exit.i

_Py_NewRef.exit.i:                                ; preds = %13, %9, %5
  %15 = phi ptr [ null, %5 ], [ %10, %9 ], [ %10, %13 ]
  %16 = getelementptr inbounds nuw i8, ptr %3, i64 48
  store ptr %15, ptr %16, align 8, !tbaa !60
  %17 = getelementptr i8, ptr %0, i64 16
  %.val.i = load i64, ptr %17, align 8, !tbaa !49
  %18 = getelementptr inbounds nuw i8, ptr %3, i64 32
  store i64 %.val.i, ptr %18, align 8, !tbaa !61
  %19 = getelementptr inbounds nuw i8, ptr %0, i64 88
  %20 = load i64, ptr %19, align 8, !tbaa !47
  %21 = getelementptr inbounds nuw i8, ptr %3, i64 40
  store i64 %20, ptr %21, align 8, !tbaa !62
  %22 = load i32, ptr %0, align 8, !tbaa !38
  %23 = icmp slt i32 %22, 0
  br i1 %23, label %_Py_NewRef.exit26.i, label %24

24:                                               ; preds = %_Py_NewRef.exit.i
  %25 = add nuw i32 %22, 1
  store i32 %25, ptr %0, align 8, !tbaa !38
  br label %_Py_NewRef.exit26.i

_Py_NewRef.exit26.i:                              ; preds = %24, %_Py_NewRef.exit.i
  %26 = getelementptr inbounds nuw i8, ptr %3, i64 24
  store ptr %0, ptr %26, align 8, !tbaa !63
  %27 = getelementptr i8, ptr %3, i64 -16
  %28 = tail call align 8 ptr @llvm.threadlocal.address.p0(ptr align 8 @_Py_tss_tstate)
  %29 = load ptr, ptr %28, align 8, !tbaa !64
  %30 = getelementptr inbounds nuw i8, ptr %29, i64 16
  %31 = load ptr, ptr %30, align 8, !tbaa !65
  %32 = getelementptr inbounds nuw i8, ptr %31, i64 7424
  %33 = getelementptr inbounds nuw i8, ptr %31, i64 7432
  %34 = load i64, ptr %33, align 8, !tbaa !66
  %35 = inttoptr i64 %34 to ptr
  %36 = ptrtoint ptr %27 to i64
  %37 = load i64, ptr %35, align 8, !tbaa !68
  %38 = and i64 %37, 3
  %39 = or i64 %38, %36
  store i64 %39, ptr %35, align 8, !tbaa !68
  %40 = getelementptr i8, ptr %3, i64 -8
  %41 = load i64, ptr %40, align 8, !tbaa !66
  %42 = and i64 %41, 3
  %43 = or i64 %42, %34
  store i64 %43, ptr %40, align 8, !tbaa !66
  %44 = getelementptr inbounds nuw i8, ptr %31, i64 7632
  %45 = load i32, ptr %44, align 8, !tbaa !69
  %46 = xor i32 %45, 1
  %47 = sext i32 %46 to i64
  %48 = ptrtoint ptr %32 to i64
  %49 = or i64 %47, %48
  store i64 %49, ptr %27, align 8, !tbaa !68
  store i64 %36, ptr %33, align 8, !tbaa !66
  br label %odictiter_new.exit

odictiter_new.exit:                               ; preds = %2, %_Py_NewRef.exit26.i
  ret ptr %3
}